; Function Attrs: null_pointer_is_valid sspstrong uwtable
define internal fastcc noundef zeroext i1 @dissect_obdii_common_absolute_pressure(ptr noundef %0, ptr noundef readonly captures(none) %1, ptr noundef %2, i32 noundef %3) unnamed_addr #0 {
  %5 = getelementptr inbounds nuw i8, ptr %1, i64 14
  %6 = load i8, ptr %5, align 2
  %7 = icmp eq i8 %6, 1
  br i1 %7, label %8, label %20

8:                                                ; preds = %4
  %9 = getelementptr inbounds nuw i8, ptr %1, i64 20
  %10 = load i8, ptr %9, align 4
  %11 = load ptr, ptr %1, align 8
  %12 = getelementptr inbounds nuw i8, ptr %11, i64 8
  %13 = load ptr, ptr %12, align 8
  %14 = zext i8 %10 to i32
  tail call void (ptr, i32, ptr, ...) @col_append_fstr(ptr noundef %13, i32 noundef 25, ptr noundef nonnull @.str.320, i32 noundef %14)
  %15 = getelementptr inbounds nuw i8, ptr %1, i64 16
  %16 = load i32, ptr %15, align 8
  %17 = load i8, ptr %5, align 2
  %18 = zext i8 %17 to i32
  %19 = tail call ptr @proto_tree_add_uint(ptr noundef %2, i32 noundef %3, ptr noundef %0, i32 noundef %16, i32 noundef %18, i32 noundef %14)
  br label %20

20:                                               ; preds = %4, %8
  ret i1 %7
}